; Function Attrs: mustprogress uwtable
define hidden void @_ZN12opencv_caffe19MemoryDataParameter9MergeImplEPN6google8protobuf7MessageERKS3_(ptr noundef %0, ptr noundef nonnull readonly align 8 captures(none) dereferenceable(16) %1) #3 align 2 personality ptr @__gxx_personality_v0 {
  %3 = getelementptr inbounds nuw i8, ptr %1, i64 16
  %4 = load i32, ptr %3, align 8, !tbaa !71
  %5 = and i32 %4, 15
  %.not.i = icmp eq i32 %5, 0
  br i1 %.not.i, label %34, label %6

6:                                                ; preds = %2
  %7 = and i32 %4, 1
  %.not12.i = icmp eq i32 %7, 0
  br i1 %.not12.i, label %12, label %8

8:                                                ; preds = %6
  %9 = getelementptr inbounds nuw i8, ptr %1, i64 24
  %10 = load i32, ptr %9, align 8, !tbaa !654
  %11 = getelementptr inbounds nuw i8, ptr %0, i64 24
  store i32 %10, ptr %11, align 8, !tbaa !654
  br label %12

12:                                               ; preds = %8, %6
  %13 = and i32 %4, 2
  %.not13.i = icmp eq i32 %13, 0
  br i1 %.not13.i, label %18, label %14

14:                                               ; preds = %12
  %15 = getelementptr inbounds nuw i8, ptr %1, i64 28
  %16 = load i32, ptr %15, align 4, !tbaa !656
  %17 = getelementptr inbounds nuw i8, ptr %0, i64 28
  store i32 %16, ptr %17, align 4, !tbaa !656
  br label %18

18:                                               ; preds = %14, %12
  %19 = and i32 %4, 4
  %.not14.i = icmp eq i32 %19, 0
  br i1 %.not14.i, label %24, label %20

20:                                               ; preds = %18
  %21 = getelementptr inbounds nuw i8, ptr %1, i64 32
  %22 = load i32, ptr %21, align 8, !tbaa !657
  %23 = getelementptr inbounds nuw i8, ptr %0, i64 32
  store i32 %22, ptr %23, align 8, !tbaa !657
  br label %24

24:                                               ; preds = %20, %18
  %25 = and i32 %4, 8
  %.not15.i = icmp eq i32 %25, 0
  br i1 %.not15.i, label %30, label %26

26:                                               ; preds = %24
  %27 = getelementptr inbounds nuw i8, ptr %1, i64 36
  %28 = load i32, ptr %27, align 4, !tbaa !658
  %29 = getelementptr inbounds nuw i8, ptr %0, i64 36
  store i32 %28, ptr %29, align 4, !tbaa !658
  br label %30

30:                                               ; preds = %26, %24
  %31 = getelementptr inbounds nuw i8, ptr %0, i64 16
  %32 = load i32, ptr %31, align 4, !tbaa !71
  %33 = or i32 %32, %4
  store i32 %33, ptr %31, align 4, !tbaa !71
  br label %34

34:                                               ; preds = %30, %2
  %35 = getelementptr inbounds nuw i8, ptr %1, i64 8
  %36 = load i64, ptr %35, align 8, !tbaa !8
  %37 = and i64 %36, 1
  %.not16.i = icmp eq i64 %37, 0
  br i1 %.not16.i, label %_ZN12opencv_caffe19MemoryDataParameter9MergeFromERKS0_.exit, label %_ZNK6google8protobuf8internal16InternalMetadata14unknown_fieldsINS0_15UnknownFieldSetEEERKT_PFS7_vE.exit.i

_ZNK6google8protobuf8internal16InternalMetadata14unknown_fieldsINS0_15UnknownFieldSetEEERKT_PFS7_vE.exit.i: ; preds = %34
  %38 = getelementptr inbounds nuw i8, ptr %0, i64 8
  %39 = and i64 %36, -4
  %40 = inttoptr i64 %39 to ptr
  %41 = getelementptr inbounds nuw i8, ptr %40, i64 8
  tail call void @_ZN6google8protobuf8internal16InternalMetadata11DoMergeFromINS0_15UnknownFieldSetEEEvRKT_(ptr noundef nonnull align 8 dereferenceable(8) %38, ptr noundef nonnull align 8 dereferenceable(24) %41)
  br label %_ZN12opencv_caffe19MemoryDataParameter9MergeFromERKS0_.exit

_ZN12opencv_caffe19MemoryDataParameter9MergeFromERKS0_.exit: ; preds = %34, %_ZNK6google8protobuf8internal16InternalMetadata14unknown_fieldsINS0_15UnknownFieldSetEEERKT_PFS7_vE.exit.i
  ret void
}